target datalayout = "e-m:e-p270:32:32-p271:32:32-p272:64:64-i64:64-i128:128-f80:128-n8:16:32:64-S128"
target triple = "x86_64-pc-linux-gnu"

%"class.cv::xobjdetect::CvParams" = type { ptr, %"class.std::__cxx11::basic_string" }
%"class.std::__cxx11::basic_string" = type { %"struct.std::__cxx11::basic_string<char>::_Alloc_hider", i64, %union.anon }
%"struct.std::__cxx11::basic_string<char>::_Alloc_hider" = type { ptr }
%union.anon = type { i64, [8 x i8] }
%"class.cv::xobjdetect::CvFeatureParams" = type { %"class.cv::xobjdetect::CvParams", i32, i32 }
%"class.cv::FileNode" = type { ptr, i64, i64 }

@.str.3 = private unnamed_addr constant [12 x i8] c"maxCatCount\00", align 1
@.str.4 = private unnamed_addr constant [9 x i8] c"featSize\00", align 1

; Function Attrs: mustprogress uwtable
define hidden noundef zeroext i1 @_ZN2cv10xobjdetect15CvFeatureParams4readERKNS_8FileNodeE(ptr noundef nonnull align 8 dereferenceable(48) %0, ptr noundef nonnull align 8 dereferenceable(24) %1) unnamed_addr #4 align 2 {
  %3 = alloca i1, align 1
  %4 = alloca ptr, align 8
  %5 = alloca ptr, align 8
  %6 = alloca %"class.cv::FileNode", align 8
  %7 = alloca %"class.cv::FileNode", align 8
  store ptr %0, ptr %4, align 8, !tbaa !48
  store ptr %1, ptr %5, align 8, !tbaa !66
  %8 = load ptr, ptr %4, align 8
  %9 = load ptr, ptr %5, align 8, !tbaa !66
  %10 = call noundef zeroext i1 @_ZNK2cv8FileNode5emptyEv(ptr noundef nonnull align 8 dereferenceable(24) %9)
  br i1 %10, label %11, label %12

11:                                               ; preds = %2
  store i1 false, ptr %3, align 1
  br label %28

12:                                               ; preds = %2
  call void @llvm.lifetime.start.p0(i64 24, ptr %6) #3
  %13 = load ptr, ptr %5, align 8, !tbaa !66
  call void @_ZNK2cv8FileNodeixEPKc(ptr dead_on_unwind writable sret(%"class.cv::FileNode") align 8 %6, ptr noundef nonnull align 8 dereferenceable(24) %13, ptr noundef @.str.3)
  %14 = call noundef i32 @_ZNK2cv8FileNodecviEv(ptr noundef nonnull align 8 dereferenceable(24) %6)
  %15 = getelementptr inbounds nuw %"class.cv::xobjdetect::CvFeatureParams", ptr %8, i32 0, i32 1
  store i32 %14, ptr %15, align 8, !tbaa !50
  call void @llvm.lifetime.end.p0(i64 24, ptr %6) #3
  call void @llvm.lifetime.start.p0(i64 24, ptr %7) #3
  %16 = load ptr, ptr %5, align 8, !tbaa !66
  call void @_ZNK2cv8FileNodeixEPKc(ptr dead_on_unwind writable sret(%"class.cv::FileNode") align 8 %7, ptr noundef nonnull align 8 dereferenceable(24) %16, ptr noundef @.str.4)
  %17 = call noundef i32 @_ZNK2cv8FileNodecviEv(ptr noundef nonnull align 8 dereferenceable(24) %7)
  %18 = getelementptr inbounds nuw %"class.cv::xobjdetect::CvFeatureParams", ptr %8, i32 0, i32 2
  store i32 %17, ptr %18, align 4, !tbaa !55
  call void @llvm.lifetime.end.p0(i64 24, ptr %7) #3
  %19 = getelementptr inbounds nuw %"class.cv::xobjdetect::CvFeatureParams", ptr %8, i32 0, i32 1
  %20 = load i32, ptr %19, align 8, !tbaa !50
  %21 = icmp sge i32 %20, 0
  br i1 %21, label %22, label %26

22:                                               ; preds = %12
  %23 = getelementptr inbounds nuw %"class.cv::xobjdetect::CvFeatureParams", ptr %8, i32 0, i32 2
  %24 = load i32, ptr %23, align 4, !tbaa !55
  %25 = icmp sge i32 %24, 1
  br label %26

26:                                               ; preds = %22, %12
  %27 = phi i1 [ false, %12 ], [ %25, %22 ]
  store i1 %27, ptr %3, align 1
  br label %28

28:                                               ; preds = %26, %11
  %29 = load i1, ptr %3, align 1
  ret i1 %29
}