; Function Attrs: mustprogress uwtable
define hidden noundef zeroext i1 @_ZN2cv10xobjdetect15CvFeatureParams4readERKNS_8FileNodeE(ptr noundef nonnull align 8 captures(none) dereferenceable(48) %0, ptr noundef nonnull align 8 dereferenceable(24) %1) unnamed_addr #3 align 2 {
  %3 = alloca %"class.cv::FileNode", align 8
  %4 = alloca %"class.cv::FileNode", align 8
  %5 = tail call noundef zeroext i1 @_ZNK2cv8FileNode5emptyEv(ptr noundef nonnull align 8 dereferenceable(24) %1)
  br i1 %5, label %15, label %6

6:                                                ; preds = %2
  call void @llvm.lifetime.start.p0(i64 24, ptr nonnull %3) #21
  call void @_ZNK2cv8FileNodeixEPKc(ptr dead_on_unwind nonnull writable sret(%"class.cv::FileNode") align 8 %3, ptr noundef nonnull align 8 dereferenceable(24) %1, ptr noundef nonnull @.str.3)
  %7 = call noundef i32 @_ZNK2cv8FileNodecviEv(ptr noundef nonnull align 8 dereferenceable(24) %3)
  %8 = getelementptr inbounds nuw i8, ptr %0, i64 40
  store i32 %7, ptr %8, align 8, !tbaa !51
  call void @llvm.lifetime.end.p0(i64 24, ptr nonnull %3) #21
  call void @llvm.lifetime.start.p0(i64 24, ptr nonnull %4) #21
  call void @_ZNK2cv8FileNodeixEPKc(ptr dead_on_unwind nonnull writable sret(%"class.cv::FileNode") align 8 %4, ptr noundef nonnull align 8 dereferenceable(24) %1, ptr noundef nonnull @.str.4)
  %9 = call noundef i32 @_ZNK2cv8FileNodecviEv(ptr noundef nonnull align 8 dereferenceable(24) %4)
  %10 = getelementptr inbounds nuw i8, ptr %0, i64 44
  store i32 %9, ptr %10, align 4, !tbaa !54
  call void @llvm.lifetime.end.p0(i64 24, ptr nonnull %4) #21
  %11 = load i32, ptr %8, align 8, !tbaa !51
  %12 = icmp sgt i32 %11, -1
  %13 = icmp sgt i32 %9, 0
  %14 = and i1 %13, %12
  br label %15

15:                                               ; preds = %2, %6
  %.0 = phi i1 [ %14, %6 ], [ false, %2 ]
  ret i1 %.0
}